; Function Attrs: uwtable
define void @_ZThn320_N6colvar23do_feature_side_effectsEi(ptr noundef %0, i32 noundef %1) unnamed_addr #4 align 2 {
  %3 = getelementptr inbounds i8, ptr %0, i64 -320
  switch i32 %1, label %_ZN6colvar23do_feature_side_effectsEi.exit [
    i32 7, label %4
    i32 4, label %5
  ]

4:                                                ; preds = %2
  tail call void @_ZN12colvarmodule19request_total_forceEv()
  br label %_ZN6colvar23do_feature_side_effectsEi.exit

5:                                                ; preds = %2
  %6 = getelementptr inbounds i8, ptr %0, i64 4256
  %7 = getelementptr inbounds i8, ptr %0, i64 4264
  %8 = load ptr, ptr %7, align 8
  %9 = load ptr, ptr %6, align 8
  %10 = icmp eq ptr %8, %9
  br i1 %10, label %11, label %_ZN6colvar23do_feature_side_effectsEi.exit

11:                                               ; preds = %5
  tail call void @_ZN6colvar15build_atom_listEv(ptr noundef nonnull align 8 dereferenceable(4624) %3)
  br label %_ZN6colvar23do_feature_side_effectsEi.exit

_ZN6colvar23do_feature_side_effectsEi.exit:       ; preds = %2, %4, %5, %11
  ret void
}